target datalayout = "e-m:e-p270:32:32-p271:32:32-p272:64:64-i64:64-i128:128-f80:128-n8:16:32:64-S128"
target triple = "x86_64-pc-linux-gnu"

@.str = private unnamed_addr constant [29 x i8] c"unable to open mailmap at %s\00", align 1
@.str.1 = private unnamed_addr constant [2 x i8] c"r\00", align 1

; Function Attrs: inlinehint nounwind uwtable
define internal i32 @const_error() #4 {
  ret i32 -1
}

; Function Attrs: nounwind uwtable
define dso_local i32 @read_mailmap_file(ptr noundef %0, ptr noundef %1, i32 noundef %2) #0 {
  %4 = alloca i32, align 4
  %5 = alloca ptr, align 8
  %6 = alloca ptr, align 8
  %7 = alloca i32, align 4
  %8 = alloca [1024 x i8], align 16
  %9 = alloca ptr, align 8
  %10 = alloca i32, align 4
  %11 = alloca i32, align 4
  store ptr %0, ptr %5, align 8, !tbaa !4
  store ptr %1, ptr %6, align 8, !tbaa !9
  store i32 %2, ptr %7, align 4, !tbaa !11
  call void @llvm.lifetime.start.p0(i64 1024, ptr %8) #7
  call void @llvm.lifetime.start.p0(i64 8, ptr %9) #7
  call void @llvm.lifetime.start.p0(i64 4, ptr %10) #7
  %12 = load ptr, ptr %6, align 8, !tbaa !9
  %13 = icmp ne ptr %12, null
  br i1 %13, label %15, label %14

14:                                               ; preds = %3
  store i32 0, ptr %4, align 4
  store i32 1, ptr %11, align 4
  br label %51

15:                                               ; preds = %3
  %16 = load i32, ptr %7, align 4, !tbaa !11
  %17 = and i32 %16, 1
  %18 = icmp ne i32 %17, 0
  br i1 %18, label %19, label %22

19:                                               ; preds = %15
  %20 = load ptr, ptr %6, align 8, !tbaa !9
  %21 = call i32 @open_nofollow(ptr noundef %20, i32 noundef 0)
  store i32 %21, ptr %10, align 4, !tbaa !11
  br label %25

22:                                               ; preds = %15
  %23 = load ptr, ptr %6, align 8, !tbaa !9
  %24 = call i32 (ptr, i32, ...) @open64(ptr noundef %23, i32 noundef 0)
  store i32 %24, ptr %10, align 4, !tbaa !11
  br label %25

25:                                               ; preds = %22, %19
  %26 = load i32, ptr %10, align 4, !tbaa !11
  %27 = icmp slt i32 %26, 0
  br i1 %27, label %28, label %37

28:                                               ; preds = %25
  %29 = call ptr @__errno_location() #8
  %30 = load i32, ptr %29, align 4, !tbaa !11
  %31 = icmp eq i32 %30, 2
  br i1 %31, label %32, label %33

32:                                               ; preds = %28
  store i32 0, ptr %4, align 4
  store i32 1, ptr %11, align 4
  br label %51

33:                                               ; preds = %28
  %34 = load ptr, ptr %6, align 8, !tbaa !9
  %35 = call i32 (ptr, ...) @error_errno(ptr noundef @.str, ptr noundef %34)
  %36 = call i32 @const_error()
  store i32 %36, ptr %4, align 4
  store i32 1, ptr %11, align 4
  br label %51

37:                                               ; preds = %25
  %38 = load i32, ptr %10, align 4, !tbaa !11
  %39 = call ptr @xfdopen(i32 noundef %38, ptr noundef @.str.1)
  store ptr %39, ptr %9, align 8, !tbaa !13
  br label %40

40:                                               ; preds = %45, %37
  %41 = getelementptr inbounds [1024 x i8], ptr %8, i64 0, i64 0
  %42 = load ptr, ptr %9, align 8, !tbaa !13
  %43 = call ptr @fgets(ptr noundef %41, i32 noundef 1024, ptr noundef %42)
  %44 = icmp ne ptr %43, null
  br i1 %44, label %45, label %48

45:                                               ; preds = %40
  %46 = load ptr, ptr %5, align 8, !tbaa !4
  %47 = getelementptr inbounds [1024 x i8], ptr %8, i64 0, i64 0
  call void @read_mailmap_line(ptr noundef %46, ptr noundef %47)
  br label %40, !llvm.loop !15

48:                                               ; preds = %40
  %49 = load ptr, ptr %9, align 8, !tbaa !13
  %50 = call i32 @fclose(ptr noundef %49)
  store i32 0, ptr %4, align 4
  store i32 1, ptr %11, align 4
  br label %51

51:                                               ; preds = %48, %33, %32, %14
  call void @llvm.lifetime.end.p0(i64 4, ptr %10) #7
  call void @llvm.lifetime.end.p0(i64 8, ptr %9) #7
  call void @llvm.lifetime.end.p0(i64 1024, ptr %8) #7
  %52 = load i32, ptr %4, align 4
  ret i32 %52
}