; Function Attrs: nounwind uwtable
define dso_local range(i32 -1, 1) i32 @read_mailmap_file(ptr noundef %0, ptr noundef %1, i32 noundef %2) local_unnamed_addr #0 {
  %4 = alloca [1024 x i8], align 16
  call void @llvm.lifetime.start.p0(i64 1024, ptr nonnull %4) #11
  %.not = icmp eq ptr %1, null
  br i1 %.not, label %24, label %5

5:                                                ; preds = %3
  %6 = and i32 %2, 1
  %.not12 = icmp eq i32 %6, 0
  br i1 %.not12, label %9, label %7

7:                                                ; preds = %5
  %8 = tail call i32 @open_nofollow(ptr noundef nonnull %1, i32 noundef 0) #11
  br label %11

9:                                                ; preds = %5
  %10 = tail call i32 (ptr, i32, ...) @open64(ptr noundef nonnull %1, i32 noundef 0) #11
  br label %11

11:                                               ; preds = %9, %7
  %.0 = phi i32 [ %8, %7 ], [ %10, %9 ]
  %12 = icmp slt i32 %.0, 0
  br i1 %12, label %13, label %19

13:                                               ; preds = %11
  %14 = tail call ptr @__errno_location() #12
  %15 = load i32, ptr %14, align 4, !tbaa !4
  %16 = icmp eq i32 %15, 2
  br i1 %16, label %24, label %17

17:                                               ; preds = %13
  %18 = tail call i32 (ptr, ...) @error_errno(ptr noundef nonnull @.str, ptr noundef nonnull %1) #11
  br label %24

19:                                               ; preds = %11
  %20 = tail call ptr @xfdopen(i32 noundef %.0, ptr noundef nonnull @.str.1) #11
  %21 = call ptr @fgets(ptr noundef nonnull %4, i32 noundef 1024, ptr noundef %20)
  %.not1314 = icmp eq ptr %21, null
  br i1 %.not1314, label %._crit_edge, label %.lr.ph

.lr.ph:                                           ; preds = %19, %.lr.ph
  call fastcc void @read_mailmap_line(ptr noundef %0, ptr noundef nonnull %4)
  %22 = call ptr @fgets(ptr noundef nonnull %4, i32 noundef 1024, ptr noundef %20)
  %.not13 = icmp eq ptr %22, null
  br i1 %.not13, label %._crit_edge, label %.lr.ph, !llvm.loop !8

._crit_edge:                                      ; preds = %.lr.ph, %19
  %23 = call i32 @fclose(ptr noundef %20)
  br label %24

24:                                               ; preds = %13, %3, %._crit_edge, %17
  %.010 = phi i32 [ -1, %17 ], [ 0, %._crit_edge ], [ 0, %3 ], [ 0, %13 ]
  call void @llvm.lifetime.end.p0(i64 1024, ptr nonnull %4) #11
  ret i32 %.010
}